target datalayout = "e-m:e-p270:32:32-p271:32:32-p272:64:64-i64:64-i128:128-f80:128-n8:16:32:64-S128"
target triple = "x86_64-pc-linux-gnu"

%"class.std::basic_ostream" = type { ptr, %"class.std::basic_ios" }
%"class.std::basic_ios" = type { %"class.std::ios_base", ptr, i8, i8, ptr, ptr, ptr, ptr }
%"class.std::ios_base" = type { ptr, i64, i64, i32, i32, i32, ptr, %"struct.std::ios_base::_Words", [8 x %"struct.std::ios_base::_Words"], i32, ptr, %"class.std::locale" }
%"struct.std::ios_base::_Words" = type { ptr, i64 }
%"class.std::locale" = type { ptr }
%class.Moves = type { i32, i32, i32, i32, i32, i32, i32, i32, i32, [13 x %"struct.Moves::trackType"], ptr, [13 x [4 x %struct.movePlyType]], ptr, [13 x [4 x i32]], [13 x %"class.std::__cxx11::basic_string"], [13 x [4 x %"struct.Moves::moveStatType"]], [13 x [4 x %"struct.Moves::moveStatType"]], [13 x [4 x %"struct.Moves::moveStatsType"]], [13 x [4 x %"struct.Moves::moveStatsType"]], %"struct.Moves::moveStatsType", %"struct.Moves::moveStatsType", [16 x { i64, i64 }] }
%"struct.Moves::trackType" = type { i32, i32, [4 x i32], [4 x i32], %struct.trickDataType, [4 x %struct.extCard], [4 x i32], [4 x [4 x i32]], [4 x i32] }
%struct.trickDataType = type { [4 x i32], i32, i32, i32, i32, i32 }
%struct.extCard = type { i32, i32, i32 }
%struct.movePlyType = type { [14 x %struct.moveType], i32, i32 }
%struct.moveType = type { i32, i32, i32, i32 }
%"class.std::__cxx11::basic_string" = type { %"struct.std::__cxx11::basic_string<char>::_Alloc_hider", i64, %union.anon }
%"struct.std::__cxx11::basic_string<char>::_Alloc_hider" = type { ptr }
%union.anon = type { i64, [8 x i8] }
%"struct.Moves::moveStatType" = type { i32, i32, i32, i32 }
%"struct.Moves::moveStatsType" = type { i32, [13 x %"struct.Moves::moveStatType"] }

@_ZSt4cout = external global %"class.std::basic_ostream", align 8
@.str.20 = private unnamed_addr constant [10 x i8] c" relHand \00", align 1
@.str.28 = private unnamed_addr constant [19 x i8] c"RegisterHit trick \00", align 1
@.str.29 = private unnamed_addr constant [11 x i8] c" findex -1\00", align 1
@.str.30 = private unnamed_addr constant [22 x i8] c"current out of bounds\00", align 1

; Function Attrs: mustprogress uwtable
define void @_ZN5Moves11RegisterHitEii(ptr noundef nonnull align 8 dereferenceable(39992) %0, i32 noundef %1, i32 noundef %2) #4 align 2 {
  %4 = alloca ptr, align 8
  %5 = alloca i32, align 4
  %6 = alloca i32, align 4
  %7 = alloca ptr, align 8
  %8 = alloca i32, align 4
  %9 = alloca i32, align 4
  %10 = alloca i32, align 4
  %11 = alloca i32, align 4
  %12 = alloca i32, align 4
  %13 = alloca i32, align 4
  %14 = alloca i32, align 4
  store ptr %0, ptr %4, align 8
  store i32 %1, ptr %5, align 4
  store i32 %2, ptr %6, align 4
  %15 = load ptr, ptr %4, align 8
  %16 = getelementptr inbounds nuw %class.Moves, ptr %15, i32 0, i32 11
  %17 = load i32, ptr %5, align 4
  %18 = sext i32 %17 to i64
  %19 = getelementptr inbounds [13 x [4 x %struct.movePlyType]], ptr %16, i64 0, i64 %18
  %20 = load i32, ptr %6, align 4
  %21 = sext i32 %20 to i64
  %22 = getelementptr inbounds [4 x %struct.movePlyType], ptr %19, i64 0, i64 %21
  store ptr %22, ptr %7, align 8
  %23 = getelementptr inbounds nuw %class.Moves, ptr %15, i32 0, i32 13
  %24 = load i32, ptr %5, align 4
  %25 = sext i32 %24 to i64
  %26 = getelementptr inbounds [13 x [4 x i32]], ptr %23, i64 0, i64 %25
  %27 = load i32, ptr %6, align 4
  %28 = sext i32 %27 to i64
  %29 = getelementptr inbounds [4 x i32], ptr %26, i64 0, i64 %28
  %30 = load i32, ptr %29, align 4
  store i32 %30, ptr %8, align 4
  %31 = load ptr, ptr %7, align 8
  %32 = getelementptr inbounds nuw %struct.movePlyType, ptr %31, i32 0, i32 2
  %33 = load i32, ptr %32, align 4
  %34 = add nsw i32 %33, 1
  store i32 %34, ptr %9, align 4
  %35 = load i32, ptr %8, align 4
  %36 = icmp eq i32 %35, -1
  br i1 %36, label %37, label %46

37:                                               ; preds = %3
  %38 = call noundef nonnull align 8 dereferenceable(8) ptr @_ZStlsISt11char_traitsIcEERSt13basic_ostreamIcT_ES5_PKc(ptr noundef nonnull align 8 dereferenceable(8) @_ZSt4cout, ptr noundef @.str.28)
  %39 = load i32, ptr %5, align 4
  %40 = call noundef nonnull align 8 dereferenceable(8) ptr @_ZNSolsEi(ptr noundef nonnull align 8 dereferenceable(8) %38, i32 noundef %39)
  %41 = call noundef nonnull align 8 dereferenceable(8) ptr @_ZStlsISt11char_traitsIcEERSt13basic_ostreamIcT_ES5_PKc(ptr noundef nonnull align 8 dereferenceable(8) %40, ptr noundef @.str.20)
  %42 = load i32, ptr %6, align 4
  %43 = call noundef nonnull align 8 dereferenceable(8) ptr @_ZNSolsEi(ptr noundef nonnull align 8 dereferenceable(8) %41, i32 noundef %42)
  %44 = call noundef nonnull align 8 dereferenceable(8) ptr @_ZStlsISt11char_traitsIcEERSt13basic_ostreamIcT_ES5_PKc(ptr noundef nonnull align 8 dereferenceable(8) %43, ptr noundef @.str.29)
  %45 = call noundef nonnull align 8 dereferenceable(8) ptr @_ZNSolsEPFRSoS_E(ptr noundef nonnull align 8 dereferenceable(8) %44, ptr noundef @_ZSt4endlIcSt11char_traitsIcEERSt13basic_ostreamIT_T0_ES6_)
  call void @exit(i32 noundef 1) #11
  unreachable

46:                                               ; preds = %3
  %47 = load ptr, ptr %7, align 8
  %48 = getelementptr inbounds nuw %struct.movePlyType, ptr %47, i32 0, i32 1
  %49 = load i32, ptr %48, align 4
  store i32 %49, ptr %10, align 4
  %50 = load i32, ptr %10, align 4
  %51 = icmp slt i32 %50, 1
  br i1 %51, label %56, label %52

52:                                               ; preds = %46
  %53 = load i32, ptr %10, align 4
  %54 = load i32, ptr %9, align 4
  %55 = icmp sgt i32 %53, %54
  br i1 %55, label %56, label %59

56:                                               ; preds = %52, %46
  %57 = call noundef nonnull align 8 dereferenceable(8) ptr @_ZStlsISt11char_traitsIcEERSt13basic_ostreamIcT_ES5_PKc(ptr noundef nonnull align 8 dereferenceable(8) @_ZSt4cout, ptr noundef @.str.30)
  %58 = call noundef nonnull align 8 dereferenceable(8) ptr @_ZNSolsEPFRSoS_E(ptr noundef nonnull align 8 dereferenceable(8) %57, ptr noundef @_ZSt4endlIcSt11char_traitsIcEERSt13basic_ostreamIT_T0_ES6_)
  call void @exit(i32 noundef 1) #11
  unreachable

59:                                               ; preds = %52
  %60 = load ptr, ptr %7, align 8
  %61 = getelementptr inbounds nuw %struct.movePlyType, ptr %60, i32 0, i32 0
  %62 = load i32, ptr %10, align 4
  %63 = sub nsw i32 %62, 1
  %64 = sext i32 %63 to i64
  %65 = getelementptr inbounds [14 x %struct.moveType], ptr %61, i64 0, i64 %64
  %66 = getelementptr inbounds nuw %struct.moveType, ptr %65, i32 0, i32 0
  %67 = load i32, ptr %66, align 4
  store i32 %67, ptr %11, align 4
  store i32 0, ptr %12, align 4
  store i32 0, ptr %13, align 4
  store i32 0, ptr %14, align 4
  br label %68

68:                                               ; preds = %93, %59
  %69 = load i32, ptr %14, align 4
  %70 = load i32, ptr %9, align 4
  %71 = icmp slt i32 %69, %70
  br i1 %71, label %72, label %96

72:                                               ; preds = %68
  %73 = load ptr, ptr %7, align 8
  %74 = getelementptr inbounds nuw %struct.movePlyType, ptr %73, i32 0, i32 0
  %75 = load i32, ptr %14, align 4
  %76 = sext i32 %75 to i64
  %77 = getelementptr inbounds [14 x %struct.moveType], ptr %74, i64 0, i64 %76
  %78 = getelementptr inbounds nuw %struct.moveType, ptr %77, i32 0, i32 0
  %79 = load i32, ptr %78, align 4
  %80 = load i32, ptr %11, align 4
  %81 = icmp eq i32 %79, %80
  br i1 %81, label %82, label %92

82:                                               ; preds = %72
  %83 = load i32, ptr %12, align 4
  %84 = add nsw i32 %83, 1
  store i32 %84, ptr %12, align 4
  %85 = load i32, ptr %14, align 4
  %86 = load i32, ptr %10, align 4
  %87 = sub nsw i32 %86, 1
  %88 = icmp eq i32 %85, %87
  br i1 %88, label %89, label %91

89:                                               ; preds = %82
  %90 = load i32, ptr %12, align 4
  store i32 %90, ptr %13, align 4
  br label %91

91:                                               ; preds = %89, %82
  br label %92

92:                                               ; preds = %91, %72
  br label %93

93:                                               ; preds = %92
  %94 = load i32, ptr %14, align 4
  %95 = add nsw i32 %94, 1
  store i32 %95, ptr %14, align 4
  br label %68, !llvm.loop !90

96:                                               ; preds = %68
  %97 = getelementptr inbounds nuw %class.Moves, ptr %15, i32 0, i32 15
  %98 = load i32, ptr %5, align 4
  %99 = sext i32 %98 to i64
  %100 = getelementptr inbounds [13 x [4 x %"struct.Moves::moveStatType"]], ptr %97, i64 0, i64 %99
  %101 = load i32, ptr %6, align 4
  %102 = sext i32 %101 to i64
  %103 = getelementptr inbounds [4 x %"struct.Moves::moveStatType"], ptr %100, i64 0, i64 %102
  %104 = getelementptr inbounds nuw %"struct.Moves::moveStatType", ptr %103, i32 0, i32 0
  %105 = load i32, ptr %104, align 8
  %106 = add nsw i32 %105, 1
  store i32 %106, ptr %104, align 8
  %107 = load i32, ptr %10, align 4
  %108 = getelementptr inbounds nuw %class.Moves, ptr %15, i32 0, i32 15
  %109 = load i32, ptr %5, align 4
  %110 = sext i32 %109 to i64
  %111 = getelementptr inbounds [13 x [4 x %"struct.Moves::moveStatType"]], ptr %108, i64 0, i64 %110
  %112 = load i32, ptr %6, align 4
  %113 = sext i32 %112 to i64
  %114 = getelementptr inbounds [4 x %"struct.Moves::moveStatType"], ptr %111, i64 0, i64 %113
  %115 = getelementptr inbounds nuw %"struct.Moves::moveStatType", ptr %114, i32 0, i32 2
  %116 = load i32, ptr %115, align 8
  %117 = add nsw i32 %116, %107
  store i32 %117, ptr %115, align 8
  %118 = load i32, ptr %9, align 4
  %119 = getelementptr inbounds nuw %class.Moves, ptr %15, i32 0, i32 15
  %120 = load i32, ptr %5, align 4
  %121 = sext i32 %120 to i64
  %122 = getelementptr inbounds [13 x [4 x %"struct.Moves::moveStatType"]], ptr %119, i64 0, i64 %121
  %123 = load i32, ptr %6, align 4
  %124 = sext i32 %123 to i64
  %125 = getelementptr inbounds [4 x %"struct.Moves::moveStatType"], ptr %122, i64 0, i64 %124
  %126 = getelementptr inbounds nuw %"struct.Moves::moveStatType", ptr %125, i32 0, i32 3
  %127 = load i32, ptr %126, align 4
  %128 = add nsw i32 %127, %118
  store i32 %128, ptr %126, align 4
  %129 = getelementptr inbounds nuw %class.Moves, ptr %15, i32 0, i32 16
  %130 = load i32, ptr %5, align 4
  %131 = sext i32 %130 to i64
  %132 = getelementptr inbounds [13 x [4 x %"struct.Moves::moveStatType"]], ptr %129, i64 0, i64 %131
  %133 = load i32, ptr %6, align 4
  %134 = sext i32 %133 to i64
  %135 = getelementptr inbounds [4 x %"struct.Moves::moveStatType"], ptr %132, i64 0, i64 %134
  %136 = getelementptr inbounds nuw %"struct.Moves::moveStatType", ptr %135, i32 0, i32 0
  %137 = load i32, ptr %136, align 8
  %138 = add nsw i32 %137, 1
  store i32 %138, ptr %136, align 8
  %139 = load i32, ptr %13, align 4
  %140 = getelementptr inbounds nuw %class.Moves, ptr %15, i32 0, i32 16
  %141 = load i32, ptr %5, align 4
  %142 = sext i32 %141 to i64
  %143 = getelementptr inbounds [13 x [4 x %"struct.Moves::moveStatType"]], ptr %140, i64 0, i64 %142
  %144 = load i32, ptr %6, align 4
  %145 = sext i32 %144 to i64
  %146 = getelementptr inbounds [4 x %"struct.Moves::moveStatType"], ptr %143, i64 0, i64 %145
  %147 = getelementptr inbounds nuw %"struct.Moves::moveStatType", ptr %146, i32 0, i32 2
  %148 = load i32, ptr %147, align 8
  %149 = add nsw i32 %148, %139
  store i32 %149, ptr %147, align 8
  %150 = load i32, ptr %12, align 4
  %151 = getelementptr inbounds nuw %class.Moves, ptr %15, i32 0, i32 16
  %152 = load i32, ptr %5, align 4
  %153 = sext i32 %152 to i64
  %154 = getelementptr inbounds [13 x [4 x %"struct.Moves::moveStatType"]], ptr %151, i64 0, i64 %153
  %155 = load i32, ptr %6, align 4
  %156 = sext i32 %155 to i64
  %157 = getelementptr inbounds [4 x %"struct.Moves::moveStatType"], ptr %154, i64 0, i64 %156
  %158 = getelementptr inbounds nuw %"struct.Moves::moveStatType", ptr %157, i32 0, i32 3
  %159 = load i32, ptr %158, align 4
  %160 = add nsw i32 %159, %150
  store i32 %160, ptr %158, align 4
  %161 = getelementptr inbounds nuw %class.Moves, ptr %15, i32 0, i32 17
  %162 = load i32, ptr %5, align 4
  %163 = sext i32 %162 to i64
  %164 = getelementptr inbounds [13 x [4 x %"struct.Moves::moveStatsType"]], ptr %161, i64 0, i64 %163
  %165 = load i32, ptr %6, align 4
  %166 = sext i32 %165 to i64
  %167 = getelementptr inbounds [4 x %"struct.Moves::moveStatsType"], ptr %164, i64 0, i64 %166
  %168 = load i32, ptr %8, align 4
  %169 = load i32, ptr %10, align 4
  %170 = load i32, ptr %9, align 4
  call void @_ZNK5Moves16UpdateStatsEntryERNS_13moveStatsTypeEiii(ptr noundef nonnull align 8 dereferenceable(39992) %15, ptr noundef nonnull align 4 dereferenceable(212) %167, i32 noundef %168, i32 noundef %169, i32 noundef %170)
  %171 = getelementptr inbounds nuw %class.Moves, ptr %15, i32 0, i32 18
  %172 = load i32, ptr %5, align 4
  %173 = sext i32 %172 to i64
  %174 = getelementptr inbounds [13 x [4 x %"struct.Moves::moveStatsType"]], ptr %171, i64 0, i64 %173
  %175 = load i32, ptr %6, align 4
  %176 = sext i32 %175 to i64
  %177 = getelementptr inbounds [4 x %"struct.Moves::moveStatsType"], ptr %174, i64 0, i64 %176
  %178 = load i32, ptr %8, align 4
  %179 = load i32, ptr %13, align 4
  %180 = load i32, ptr %12, align 4
  call void @_ZNK5Moves16UpdateStatsEntryERNS_13moveStatsTypeEiii(ptr noundef nonnull align 8 dereferenceable(39992) %15, ptr noundef nonnull align 4 dereferenceable(212) %177, i32 noundef %178, i32 noundef %179, i32 noundef %180)
  %181 = getelementptr inbounds nuw %class.Moves, ptr %15, i32 0, i32 19
  %182 = load i32, ptr %8, align 4
  %183 = load i32, ptr %10, align 4
  %184 = load i32, ptr %9, align 4
  call void @_ZNK5Moves16UpdateStatsEntryERNS_13moveStatsTypeEiii(ptr noundef nonnull align 8 dereferenceable(39992) %15, ptr noundef nonnull align 4 dereferenceable(212) %181, i32 noundef %182, i32 noundef %183, i32 noundef %184)
  %185 = getelementptr inbounds nuw %class.Moves, ptr %15, i32 0, i32 20
  %186 = load i32, ptr %8, align 4
  %187 = load i32, ptr %13, align 4
  %188 = load i32, ptr %12, align 4
  call void @_ZNK5Moves16UpdateStatsEntryERNS_13moveStatsTypeEiii(ptr noundef nonnull align 8 dereferenceable(39992) %15, ptr noundef nonnull align 4 dereferenceable(212) %185, i32 noundef %186, i32 noundef %187, i32 noundef %188)
  ret void
}