; Function Attrs: mustprogress uwtable
define void @_ZN5Moves11RegisterHitEii(ptr nocapture noundef nonnull align 8 dereferenceable(39992) %0, i32 noundef %1, i32 noundef %2) local_unnamed_addr #3 align 2 {
  %4 = getelementptr inbounds nuw i8, ptr %0, i64 2904
  %5 = sext i32 %1 to i64
  %6 = sext i32 %2 to i64
  %7 = getelementptr inbounds [13 x [4 x %struct.movePlyType]], ptr %4, i64 0, i64 %5, i64 %6
  %8 = getelementptr inbounds nuw i8, ptr %0, i64 14976
  %9 = getelementptr inbounds [13 x [4 x i32]], ptr %8, i64 0, i64 %5, i64 %6
  %10 = load i32, ptr %9, align 4
  %11 = getelementptr inbounds nuw i8, ptr %7, i64 228
  %12 = load i32, ptr %11, align 4
  %13 = add i32 %12, 1
  %14 = icmp eq i32 %10, -1
  br i1 %14, label %15, label %22

15:                                               ; preds = %3
  %16 = tail call noundef nonnull align 8 dereferenceable(8) ptr @_ZStlsISt11char_traitsIcEERSt13basic_ostreamIcT_ES5_PKc(ptr noundef nonnull align 8 dereferenceable(8) @_ZSt4cout, ptr noundef nonnull @.str.28)
  %17 = tail call noundef nonnull align 8 dereferenceable(8) ptr @_ZNSolsEi(ptr noundef nonnull align 8 dereferenceable(8) %16, i32 noundef %1)
  %18 = tail call noundef nonnull align 8 dereferenceable(8) ptr @_ZStlsISt11char_traitsIcEERSt13basic_ostreamIcT_ES5_PKc(ptr noundef nonnull align 8 dereferenceable(8) %17, ptr noundef nonnull @.str.20)
  %19 = tail call noundef nonnull align 8 dereferenceable(8) ptr @_ZNSolsEi(ptr noundef nonnull align 8 dereferenceable(8) %18, i32 noundef %2)
  %20 = tail call noundef nonnull align 8 dereferenceable(8) ptr @_ZStlsISt11char_traitsIcEERSt13basic_ostreamIcT_ES5_PKc(ptr noundef nonnull align 8 dereferenceable(8) %19, ptr noundef nonnull @.str.29)
  %21 = tail call noundef nonnull align 8 dereferenceable(8) ptr @_ZNSolsEPFRSoS_E(ptr noundef nonnull align 8 dereferenceable(8) %20, ptr noundef nonnull @_ZSt4endlIcSt11char_traitsIcEERSt13basic_ostreamIT_T0_ES6_)
  tail call void @exit(i32 noundef 1) #22
  unreachable

22:                                               ; preds = %3
  %23 = getelementptr inbounds nuw i8, ptr %7, i64 224
  %24 = load i32, ptr %23, align 8
  %25 = icmp slt i32 %24, 1
  %26 = icmp sgt i32 %24, %13
  %or.cond = select i1 %25, i1 true, i1 %26
  br i1 %or.cond, label %27, label %30

27:                                               ; preds = %22
  %28 = tail call noundef nonnull align 8 dereferenceable(8) ptr @_ZStlsISt11char_traitsIcEERSt13basic_ostreamIcT_ES5_PKc(ptr noundef nonnull align 8 dereferenceable(8) @_ZSt4cout, ptr noundef nonnull @.str.30)
  %29 = tail call noundef nonnull align 8 dereferenceable(8) ptr @_ZNSolsEPFRSoS_E(ptr noundef nonnull align 8 dereferenceable(8) %28, ptr noundef nonnull @_ZSt4endlIcSt11char_traitsIcEERSt13basic_ostreamIT_T0_ES6_)
  tail call void @exit(i32 noundef 1) #22
  unreachable

30:                                               ; preds = %22
  %31 = add nsw i32 %24, -1
  %32 = zext nneg i32 %31 to i64
  %33 = getelementptr inbounds [14 x %struct.moveType], ptr %7, i64 0, i64 %32
  %34 = load i32, ptr %33, align 8
  %.not62 = icmp slt i32 %12, 0
  br i1 %.not62, label %._crit_edge, label %.lr.ph.preheader

.lr.ph.preheader:                                 ; preds = %30
  %wide.trip.count = zext i32 %13 to i64
  br label %.lr.ph

.lr.ph:                                           ; preds = %.lr.ph.preheader, %.lr.ph
  %indvars.iv = phi i64 [ 0, %.lr.ph.preheader ], [ %indvars.iv.next, %.lr.ph ]
  %.05664 = phi i32 [ 0, %.lr.ph.preheader ], [ %.1, %.lr.ph ]
  %.05763 = phi i32 [ 0, %.lr.ph.preheader ], [ %.158, %.lr.ph ]
  %35 = getelementptr inbounds [14 x %struct.moveType], ptr %7, i64 0, i64 %indvars.iv
  %36 = load i32, ptr %35, align 8
  %37 = icmp eq i32 %36, %34
  %38 = add nsw i32 %.05763, 1
  %39 = icmp eq i64 %indvars.iv, %32
  %.158 = select i1 %37, i32 %38, i32 %.05763
  %40 = and i1 %39, %37
  %.1 = select i1 %40, i32 %38, i32 %.05664
  %indvars.iv.next = add nuw nsw i64 %indvars.iv, 1
  %exitcond.not = icmp eq i64 %indvars.iv.next, %wide.trip.count
  br i1 %exitcond.not, label %._crit_edge, label %.lr.ph, !llvm.loop !100

._crit_edge:                                      ; preds = %.lr.ph, %30
  %.057.lcssa = phi i32 [ 0, %30 ], [ %.158, %.lr.ph ]
  %.056.lcssa = phi i32 [ 0, %30 ], [ %.1, %.lr.ph ]
  %41 = getelementptr inbounds nuw i8, ptr %0, i64 15600
  %42 = getelementptr inbounds [13 x [4 x %"struct.Moves::moveStatType"]], ptr %41, i64 0, i64 %5, i64 %6
  %43 = load i32, ptr %42, align 8
  %44 = add nsw i32 %43, 1
  store i32 %44, ptr %42, align 8
  %45 = getelementptr inbounds nuw i8, ptr %42, i64 8
  %46 = load i32, ptr %45, align 8
  %47 = add nsw i32 %46, %24
  store i32 %47, ptr %45, align 8
  %48 = getelementptr inbounds nuw i8, ptr %42, i64 12
  %49 = load i32, ptr %48, align 4
  %50 = add nsw i32 %49, %13
  store i32 %50, ptr %48, align 4
  %51 = getelementptr inbounds nuw i8, ptr %0, i64 16432
  %52 = getelementptr inbounds [13 x [4 x %"struct.Moves::moveStatType"]], ptr %51, i64 0, i64 %5, i64 %6
  %53 = load i32, ptr %52, align 8
  %54 = add nsw i32 %53, 1
  store i32 %54, ptr %52, align 8
  %55 = getelementptr inbounds nuw i8, ptr %52, i64 8
  %56 = load i32, ptr %55, align 8
  %57 = add nsw i32 %56, %.056.lcssa
  store i32 %57, ptr %55, align 8
  %58 = getelementptr inbounds nuw i8, ptr %52, i64 12
  %59 = load i32, ptr %58, align 4
  %60 = add nsw i32 %59, %.057.lcssa
  store i32 %60, ptr %58, align 4
  %61 = getelementptr inbounds nuw i8, ptr %0, i64 17264
  %62 = getelementptr inbounds [13 x [4 x %"struct.Moves::moveStatsType"]], ptr %61, i64 0, i64 %5, i64 %6
  tail call void @_ZNK5Moves16UpdateStatsEntryERNS_13moveStatsTypeEiii(ptr nonnull align 8 poison, ptr noundef nonnull align 4 dereferenceable(212) %62, i32 noundef %10, i32 noundef %24, i32 noundef %13)
  %63 = getelementptr inbounds nuw i8, ptr %0, i64 28288
  %64 = getelementptr inbounds [13 x [4 x %"struct.Moves::moveStatsType"]], ptr %63, i64 0, i64 %5, i64 %6
  tail call void @_ZNK5Moves16UpdateStatsEntryERNS_13moveStatsTypeEiii(ptr nonnull align 8 poison, ptr noundef nonnull align 4 dereferenceable(212) %64, i32 noundef %10, i32 noundef %.056.lcssa, i32 noundef %.057.lcssa)
  %65 = getelementptr inbounds nuw i8, ptr %0, i64 39312
  tail call void @_ZNK5Moves16UpdateStatsEntryERNS_13moveStatsTypeEiii(ptr nonnull align 8 poison, ptr noundef nonnull align 4 dereferenceable(212) %65, i32 noundef %10, i32 noundef %24, i32 noundef %13)
  %66 = getelementptr inbounds nuw i8, ptr %0, i64 39524
  tail call void @_ZNK5Moves16UpdateStatsEntryERNS_13moveStatsTypeEiii(ptr nonnull align 8 poison, ptr noundef nonnull align 4 dereferenceable(212) %66, i32 noundef %10, i32 noundef %.056.lcssa, i32 noundef %.057.lcssa)
  ret void
}